; Function Attrs: mustprogress nounwind uwtable
define hidden noundef ptr @_ZN15ResourceTracker8allocateEl(ptr nocapture noundef nonnull align 8 dereferenceable(17) %0, i64 noundef %1) local_unnamed_addr #0 align 2 {
  %3 = icmp slt i64 %1, 0
  br i1 %3, label %_ZN12JvmtiEnvBase8allocateElPPh.exit.i, label %4

4:                                                ; preds = %2
  %5 = icmp eq i64 %1, 0
  br i1 %5, label %9, label %6

6:                                                ; preds = %4
  %7 = tail call noundef ptr @_ZN2os6mallocEm8MEMFLAGS(i64 noundef %1, i8 noundef zeroext 9) #18
  %8 = icmp eq ptr %7, null
  br i1 %8, label %_ZN12JvmtiEnvBase8allocateElPPh.exit.i, label %9

9:                                                ; preds = %6, %4
  %.1.ph.i = phi ptr [ null, %4 ], [ %7, %6 ]
  %10 = getelementptr inbounds i8, ptr %0, i64 8
  %11 = load ptr, ptr %10, align 8
  %12 = load i32, ptr %11, align 8
  %13 = getelementptr inbounds i8, ptr %11, i64 4
  %14 = load i32, ptr %13, align 4
  %15 = icmp eq i32 %12, %14
  br i1 %15, label %16, label %_ZN26GrowableArrayWithAllocatorIPh13GrowableArrayIS0_EE6appendERKS0_.exit.i

16:                                               ; preds = %9
  %17 = add nsw i32 %12, 1
  %18 = icmp sgt i32 %12, -1
  %19 = xor i32 %12, -2147483648
  %20 = and i32 %19, %17
  %21 = icmp eq i32 %20, 0
  %22 = and i1 %18, %21
  %23 = tail call range(i32 0, 33) i32 @llvm.ctlz.i32(i32 %17, i1 true)
  %24 = sub nuw nsw i32 32, %23
  %25 = shl nuw i32 1, %24
  %.0.i.i.i.i.i = select i1 %22, i32 %17, i32 %25
  tail call void @_ZN26GrowableArrayWithAllocatorIPh13GrowableArrayIS0_EE9expand_toEi(ptr noundef nonnull align 8 dereferenceable(16) %11, i32 noundef %.0.i.i.i.i.i)
  %.pre.i.i = load i32, ptr %11, align 8
  br label %_ZN26GrowableArrayWithAllocatorIPh13GrowableArrayIS0_EE6appendERKS0_.exit.i

_ZN26GrowableArrayWithAllocatorIPh13GrowableArrayIS0_EE6appendERKS0_.exit.i: ; preds = %16, %9
  %26 = phi i32 [ %.pre.i.i, %16 ], [ %12, %9 ]
  %27 = add nsw i32 %26, 1
  store i32 %27, ptr %11, align 8
  %28 = getelementptr inbounds i8, ptr %11, i64 8
  %29 = load ptr, ptr %28, align 8
  %30 = sext i32 %26 to i64
  %31 = getelementptr inbounds ptr, ptr %29, i64 %30
  store ptr %.1.ph.i, ptr %31, align 8
  br label %_ZN15ResourceTracker8allocateElPPh.exit

_ZN12JvmtiEnvBase8allocateElPPh.exit.i:           ; preds = %6, %2
  %32 = getelementptr inbounds i8, ptr %0, i64 16
  store i8 1, ptr %32, align 8
  br label %_ZN15ResourceTracker8allocateElPPh.exit

_ZN15ResourceTracker8allocateElPPh.exit:          ; preds = %_ZN26GrowableArrayWithAllocatorIPh13GrowableArrayIS0_EE6appendERKS0_.exit.i, %_ZN12JvmtiEnvBase8allocateElPPh.exit.i
  %.0 = phi ptr [ null, %_ZN12JvmtiEnvBase8allocateElPPh.exit.i ], [ %.1.ph.i, %_ZN26GrowableArrayWithAllocatorIPh13GrowableArrayIS0_EE6appendERKS0_.exit.i ]
  ret ptr %.0
}